target datalayout = "e-m:e-p270:32:32-p271:32:32-p272:64:64-i64:64-i128:128-f80:128-n8:16:32:64-S128"
target triple = "x86_64-pc-linux-gnu"

%struct._object = type { %union.anon, ptr }
%union.anon = type { i64 }
%struct.RFILE = type { ptr, i32, ptr, ptr, ptr, ptr, i64, ptr, i32 }
%struct.anon = type { i32, i32 }

; Function Attrs: alwaysinline nounwind uwtable
define internal i32 @_Py_IsImmortal(ptr noundef %0) #4 {
  %2 = alloca ptr, align 8
  store ptr %0, ptr %2, align 8, !tbaa !25
  %3 = load ptr, ptr %2, align 8, !tbaa !25
  %4 = getelementptr inbounds nuw %struct._object, ptr %3, i32 0, i32 0
  %5 = getelementptr inbounds nuw %struct.anon, ptr %4, i32 0, i32 0
  %6 = load i32, ptr %5, align 8, !tbaa !24
  %7 = icmp slt i32 %6, 0
  %8 = zext i1 %7 to i32
  ret i32 %8
}

; Function Attrs: alwaysinline nounwind uwtable
define internal void @Py_DECREF(ptr noundef %0) #4 {
  %2 = alloca ptr, align 8
  store ptr %0, ptr %2, align 8, !tbaa !25
  %3 = load ptr, ptr %2, align 8, !tbaa !25
  %4 = call i32 @_Py_IsImmortal(ptr noundef %3)
  %5 = icmp ne i32 %4, 0
  br i1 %5, label %6, label %7

6:                                                ; preds = %1
  br label %16

7:                                                ; preds = %1
  %8 = load ptr, ptr %2, align 8, !tbaa !25
  %9 = getelementptr inbounds nuw %struct._object, ptr %8, i32 0, i32 0
  %10 = getelementptr inbounds nuw %struct.anon, ptr %9, i32 0, i32 0
  %11 = load i32, ptr %10, align 8, !tbaa !24
  %12 = add i32 %11, -1
  store i32 %12, ptr %10, align 8, !tbaa !24
  %13 = icmp eq i32 %12, 0
  br i1 %13, label %14, label %16

14:                                               ; preds = %7
  %15 = load ptr, ptr %2, align 8, !tbaa !25
  call void @_Py_Dealloc(ptr noundef %15)
  br label %16

16:                                               ; preds = %6, %14, %7
  ret void
}

; Function Attrs: nounwind uwtable
define dso_local ptr @PyMarshal_ReadObjectFromString(ptr noundef %0, i64 noundef %1) #0 {
  %3 = alloca ptr, align 8
  %4 = alloca ptr, align 8
  %5 = alloca i64, align 8
  %6 = alloca %struct.RFILE, align 8
  %7 = alloca ptr, align 8
  %8 = alloca i32, align 4
  store ptr %0, ptr %4, align 8, !tbaa !37
  store i64 %1, ptr %5, align 8, !tbaa !4
  call void @llvm.lifetime.start.p0(i64 72, ptr %6) #11
  call void @llvm.lifetime.start.p0(i64 8, ptr %7) #11
  %9 = getelementptr inbounds nuw %struct.RFILE, ptr %6, i32 0, i32 8
  store i32 1, ptr %9, align 8, !tbaa !41
  %10 = getelementptr inbounds nuw %struct.RFILE, ptr %6, i32 0, i32 0
  store ptr null, ptr %10, align 8, !tbaa !31
  %11 = getelementptr inbounds nuw %struct.RFILE, ptr %6, i32 0, i32 2
  store ptr null, ptr %11, align 8, !tbaa !29
  %12 = load ptr, ptr %4, align 8, !tbaa !37
  %13 = getelementptr inbounds nuw %struct.RFILE, ptr %6, i32 0, i32 3
  store ptr %12, ptr %13, align 8, !tbaa !32
  %14 = load ptr, ptr %4, align 8, !tbaa !37
  %15 = load i64, ptr %5, align 8, !tbaa !4
  %16 = getelementptr i8, ptr %14, i64 %15
  %17 = getelementptr inbounds nuw %struct.RFILE, ptr %6, i32 0, i32 4
  store ptr %16, ptr %17, align 8, !tbaa !33
  %18 = getelementptr inbounds nuw %struct.RFILE, ptr %6, i32 0, i32 5
  store ptr null, ptr %18, align 8, !tbaa !34
  %19 = getelementptr inbounds nuw %struct.RFILE, ptr %6, i32 0, i32 1
  store i32 0, ptr %19, align 8, !tbaa !42
  %20 = call ptr @PyList_New(i64 noundef 0)
  %21 = getelementptr inbounds nuw %struct.RFILE, ptr %6, i32 0, i32 7
  store ptr %20, ptr %21, align 8, !tbaa !43
  %22 = getelementptr inbounds nuw %struct.RFILE, ptr %6, i32 0, i32 7
  %23 = load ptr, ptr %22, align 8, !tbaa !43
  %24 = icmp eq ptr %23, null
  br i1 %24, label %25, label %26

25:                                               ; preds = %2
  store ptr null, ptr %3, align 8
  store i32 1, ptr %8, align 4
  br label %38

26:                                               ; preds = %2
  %27 = call ptr @read_object(ptr noundef %6)
  store ptr %27, ptr %7, align 8, !tbaa !25
  %28 = getelementptr inbounds nuw %struct.RFILE, ptr %6, i32 0, i32 7
  %29 = load ptr, ptr %28, align 8, !tbaa !43
  call void @Py_DECREF(ptr noundef %29)
  %30 = getelementptr inbounds nuw %struct.RFILE, ptr %6, i32 0, i32 5
  %31 = load ptr, ptr %30, align 8, !tbaa !34
  %32 = icmp ne ptr %31, null
  br i1 %32, label %33, label %36

33:                                               ; preds = %26
  %34 = getelementptr inbounds nuw %struct.RFILE, ptr %6, i32 0, i32 5
  %35 = load ptr, ptr %34, align 8, !tbaa !34
  call void @PyMem_Free(ptr noundef %35)
  br label %36

36:                                               ; preds = %33, %26
  %37 = load ptr, ptr %7, align 8, !tbaa !25
  store ptr %37, ptr %3, align 8
  store i32 1, ptr %8, align 4
  br label %38

38:                                               ; preds = %36, %25
  call void @llvm.lifetime.end.p0(i64 8, ptr %7) #11
  call void @llvm.lifetime.end.p0(i64 72, ptr %6) #11
  %39 = load ptr, ptr %3, align 8
  ret ptr %39
}