; Function Attrs: nounwind uwtable
define dso_local ptr @PyMarshal_ReadObjectFromString(ptr noundef %0, i64 noundef %1) local_unnamed_addr #0 {
  %3 = alloca %struct.RFILE, align 8
  call void @llvm.lifetime.start.p0(i64 72, ptr nonnull %3) #11
  %4 = getelementptr inbounds nuw i8, ptr %3, i64 64
  store i32 1, ptr %4, align 8, !tbaa !47
  store ptr null, ptr %3, align 8, !tbaa !45
  %5 = getelementptr inbounds nuw i8, ptr %3, i64 16
  store ptr null, ptr %5, align 8, !tbaa !43
  %6 = getelementptr inbounds nuw i8, ptr %3, i64 24
  store ptr %0, ptr %6, align 8, !tbaa !48
  %7 = getelementptr i8, ptr %0, i64 %1
  %8 = getelementptr inbounds nuw i8, ptr %3, i64 32
  store ptr %7, ptr %8, align 8, !tbaa !49
  %9 = getelementptr inbounds nuw i8, ptr %3, i64 40
  store ptr null, ptr %9, align 8, !tbaa !46
  %10 = getelementptr inbounds nuw i8, ptr %3, i64 8
  store i32 0, ptr %10, align 8, !tbaa !50
  %11 = tail call ptr @PyList_New(i64 noundef 0) #11
  %12 = getelementptr inbounds nuw i8, ptr %3, i64 56
  store ptr %11, ptr %12, align 8, !tbaa !51
  %13 = icmp eq ptr %11, null
  br i1 %13, label %24, label %14

14:                                               ; preds = %2
  %15 = call fastcc ptr @read_object(ptr noundef %3)
  %16 = load ptr, ptr %12, align 8, !tbaa !51
  %17 = load i32, ptr %16, align 8, !tbaa !25
  %.not.i = icmp sgt i32 %17, -1
  br i1 %.not.i, label %18, label %Py_DECREF.exit

18:                                               ; preds = %14
  %19 = add nsw i32 %17, -1
  store i32 %19, ptr %16, align 8, !tbaa !25
  %20 = icmp eq i32 %19, 0
  br i1 %20, label %21, label %Py_DECREF.exit

21:                                               ; preds = %18
  call void @_Py_Dealloc(ptr noundef nonnull %16) #11
  br label %Py_DECREF.exit

Py_DECREF.exit:                                   ; preds = %14, %18, %21
  %22 = load ptr, ptr %9, align 8, !tbaa !46
  %.not = icmp eq ptr %22, null
  br i1 %.not, label %24, label %23

23:                                               ; preds = %Py_DECREF.exit
  call void @PyMem_Free(ptr noundef nonnull %22) #11
  br label %24

24:                                               ; preds = %Py_DECREF.exit, %23, %2
  %.0 = phi ptr [ null, %2 ], [ %15, %23 ], [ %15, %Py_DECREF.exit ]
  call void @llvm.lifetime.end.p0(i64 72, ptr nonnull %3) #11
  ret ptr %.0
}